target datalayout = "e-m:e-p270:32:32-p271:32:32-p272:64:64-i64:64-i128:128-f80:128-n8:16:32:64-S128"
target triple = "x86_64-pc-linux-gnu"

%"struct.OpenImageIO::v3_1_0::TypeDesc" = type { i8, i8, i8, i8, i32 }
%"class.OpenImageIO::v3_1_0::ImageSpec" = type { i32, i32, i32, i32, i32, i32, i32, i32, i32, i32, i32, i32, i32, i32, i32, i32, %"struct.OpenImageIO::v3_1_0::TypeDesc", %"class.std::vector", %"class.std::vector.4", i32, i32, i8, %"class.OpenImageIO::v3_1_0::ParamValueList" }
%"class.std::vector" = type { %"struct.std::_Vector_base" }
%"struct.std::_Vector_base" = type { %"struct.std::_Vector_base<OpenImageIO::v3_1_0::TypeDesc, std::allocator<OpenImageIO::v3_1_0::TypeDesc>>::_Vector_impl" }
%"struct.std::_Vector_base<OpenImageIO::v3_1_0::TypeDesc, std::allocator<OpenImageIO::v3_1_0::TypeDesc>>::_Vector_impl" = type { %"struct.std::_Vector_base<OpenImageIO::v3_1_0::TypeDesc, std::allocator<OpenImageIO::v3_1_0::TypeDesc>>::_Vector_impl_data" }
%"struct.std::_Vector_base<OpenImageIO::v3_1_0::TypeDesc, std::allocator<OpenImageIO::v3_1_0::TypeDesc>>::_Vector_impl_data" = type { ptr, ptr, ptr }
%"class.std::vector.4" = type { %"struct.std::_Vector_base.5" }
%"struct.std::_Vector_base.5" = type { %"struct.std::_Vector_base<std::__cxx11::basic_string<char>, std::allocator<std::__cxx11::basic_string<char>>>::_Vector_impl" }
%"struct.std::_Vector_base<std::__cxx11::basic_string<char>, std::allocator<std::__cxx11::basic_string<char>>>::_Vector_impl" = type { %"struct.std::_Vector_base<std::__cxx11::basic_string<char>, std::allocator<std::__cxx11::basic_string<char>>>::_Vector_impl_data" }
%"struct.std::_Vector_base<std::__cxx11::basic_string<char>, std::allocator<std::__cxx11::basic_string<char>>>::_Vector_impl_data" = type { ptr, ptr, ptr }
%"class.OpenImageIO::v3_1_0::ParamValueList" = type { %"class.std::vector.9" }
%"class.std::vector.9" = type { %"struct.std::_Vector_base.10" }
%"struct.std::_Vector_base.10" = type { %"struct.std::_Vector_base<OpenImageIO::v3_1_0::ParamValue, std::allocator<OpenImageIO::v3_1_0::ParamValue>>::_Vector_impl" }
%"struct.std::_Vector_base<OpenImageIO::v3_1_0::ParamValue, std::allocator<OpenImageIO::v3_1_0::ParamValue>>::_Vector_impl" = type { %"struct.std::_Vector_base<OpenImageIO::v3_1_0::ParamValue, std::allocator<OpenImageIO::v3_1_0::ParamValue>>::_Vector_impl_data" }
%"struct.std::_Vector_base<OpenImageIO::v3_1_0::ParamValue, std::allocator<OpenImageIO::v3_1_0::ParamValue>>::_Vector_impl_data" = type { ptr, ptr, ptr }
%"class.OpenImageIO::v3_1_0::ImageInput" = type { ptr, %"class.OpenImageIO::v3_1_0::ImageSpec", %"class.std::unique_ptr" }
%"class.std::unique_ptr" = type { %"struct.std::__uniq_ptr_data" }
%"struct.std::__uniq_ptr_data" = type { %"class.std::__uniq_ptr_impl" }
%"class.std::__uniq_ptr_impl" = type { %"class.std::tuple" }
%"class.std::tuple" = type { %"struct.std::_Tuple_impl" }
%"struct.std::_Tuple_impl" = type { %"struct.std::_Tuple_impl.14", %"struct.std::_Head_base.15" }
%"struct.std::_Tuple_impl.14" = type { %"struct.std::_Head_base" }
%"struct.std::_Head_base" = type { ptr }
%"struct.std::_Head_base.15" = type { ptr }
%"class.std::lock_guard" = type { ptr }

; Function Attrs: mustprogress nounwind uwtable
define linkonce_odr void @_ZNSt10lock_guardIRKN11OpenImageIO6v3_1_010ImageInputEED2Ev(ptr noundef nonnull align 8 dereferenceable(8) %0) unnamed_addr #7 comdat align 2 personality ptr @__gxx_personality_v0 {
  %2 = alloca ptr, align 8
  store ptr %0, ptr %2, align 8, !tbaa !292
  %3 = load ptr, ptr %2, align 8
  %4 = getelementptr inbounds nuw %"class.std::lock_guard", ptr %3, i32 0, i32 0
  %5 = load ptr, ptr %4, align 8, !tbaa !294
  invoke void @_ZNK11OpenImageIO6v3_1_010ImageInput6unlockEv(ptr noundef nonnull align 8 dereferenceable(184) %5)
          to label %6 unwind label %7

6:                                                ; preds = %1
  ret void

7:                                                ; preds = %1
  %8 = landingpad { ptr, i32 }
          catch ptr null
  %9 = extractvalue { ptr, i32 } %8, 0
  call void @__clang_call_terminate(ptr %9) #27
  unreachable
}

; Function Attrs: mustprogress uwtable
define linkonce_odr void @_ZNSt10lock_guardIRKN11OpenImageIO6v3_1_010ImageInputEEC2ES4_(ptr noundef nonnull align 8 dereferenceable(8) %0, ptr noundef nonnull align 8 dereferenceable(184) %1) unnamed_addr #8 comdat align 2 {
  %3 = alloca ptr, align 8
  %4 = alloca ptr, align 8
  store ptr %0, ptr %3, align 8, !tbaa !292
  store ptr %1, ptr %4, align 8, !tbaa !156
  %5 = load ptr, ptr %3, align 8
  %6 = getelementptr inbounds nuw %"class.std::lock_guard", ptr %5, i32 0, i32 0
  %7 = load ptr, ptr %4, align 8, !tbaa !156
  store ptr %7, ptr %6, align 8, !tbaa !156
  %8 = getelementptr inbounds nuw %"class.std::lock_guard", ptr %5, i32 0, i32 0
  %9 = load ptr, ptr %8, align 8, !tbaa !294
  call void @_ZNK11OpenImageIO6v3_1_010ImageInput4lockEv(ptr noundef nonnull align 8 dereferenceable(184) %9)
  ret void
}

; Function Attrs: mustprogress uwtable
define hidden noundef zeroext i1 @_ZN11OpenImageIO6v3_1_012OpenEXRInput16read_native_tileEiiiiiPv(ptr noundef nonnull align 8 dereferenceable(320) %0, i32 noundef %1, i32 noundef %2, i32 noundef %3, i32 noundef %4, i32 noundef %5, ptr noundef %6) unnamed_addr #8 align 2 personality ptr @__gxx_personality_v0 {
  %8 = alloca i1, align 1
  %9 = alloca ptr, align 8
  %10 = alloca i32, align 4
  %11 = alloca i32, align 4
  %12 = alloca i32, align 4
  %13 = alloca i32, align 4
  %14 = alloca i32, align 4
  %15 = alloca ptr, align 8
  %16 = alloca %"class.std::lock_guard", align 8
  %17 = alloca ptr, align 8
  %18 = alloca i32, align 4
  %19 = alloca i32, align 4
  store ptr %0, ptr %9, align 8, !tbaa !59
  store i32 %1, ptr %10, align 4, !tbaa !14
  store i32 %2, ptr %11, align 4, !tbaa !14
  store i32 %3, ptr %12, align 4, !tbaa !14
  store i32 %4, ptr %13, align 4, !tbaa !14
  store i32 %5, ptr %14, align 4, !tbaa !14
  store ptr %6, ptr %15, align 8, !tbaa !355
  %20 = load ptr, ptr %9, align 8
  call void @llvm.lifetime.start.p0(i64 8, ptr %16) #5
  call void @_ZNSt10lock_guardIRKN11OpenImageIO6v3_1_010ImageInputEEC2ES4_(ptr noundef nonnull align 8 dereferenceable(8) %16, ptr noundef nonnull align 8 dereferenceable(184) %20)
  %21 = load i32, ptr %10, align 4, !tbaa !14
  %22 = load i32, ptr %11, align 4, !tbaa !14
  %23 = invoke noundef zeroext i1 @_ZN11OpenImageIO6v3_1_012OpenEXRInput13seek_subimageEii(ptr noundef nonnull align 8 dereferenceable(320) %20, i32 noundef %21, i32 noundef %22)
          to label %24 unwind label %26

24:                                               ; preds = %7
  br i1 %23, label %30, label %25

25:                                               ; preds = %24
  store i1 false, ptr %8, align 1
  store i32 1, ptr %19, align 4
  br label %57

26:                                               ; preds = %30, %7
  %27 = landingpad { ptr, i32 }
          cleanup
  %28 = extractvalue { ptr, i32 } %27, 0
  store ptr %28, ptr %17, align 8
  %29 = extractvalue { ptr, i32 } %27, 1
  store i32 %29, ptr %18, align 4
  call void @_ZNSt10lock_guardIRKN11OpenImageIO6v3_1_010ImageInputEED2Ev(ptr noundef nonnull align 8 dereferenceable(8) %16) #5
  call void @llvm.lifetime.end.p0(i64 8, ptr %16) #5
  br label %59

30:                                               ; preds = %24
  %31 = load i32, ptr %10, align 4, !tbaa !14
  %32 = load i32, ptr %11, align 4, !tbaa !14
  %33 = load i32, ptr %12, align 4, !tbaa !14
  %34 = load i32, ptr %12, align 4, !tbaa !14
  %35 = getelementptr inbounds nuw %"class.OpenImageIO::v3_1_0::ImageInput", ptr %20, i32 0, i32 1
  %36 = getelementptr inbounds nuw %"class.OpenImageIO::v3_1_0::ImageSpec", ptr %35, i32 0, i32 12
  %37 = load i32, ptr %36, align 8, !tbaa !435
  %38 = add nsw i32 %34, %37
  %39 = load i32, ptr %13, align 4, !tbaa !14
  %40 = load i32, ptr %13, align 4, !tbaa !14
  %41 = getelementptr inbounds nuw %"class.OpenImageIO::v3_1_0::ImageInput", ptr %20, i32 0, i32 1
  %42 = getelementptr inbounds nuw %"class.OpenImageIO::v3_1_0::ImageSpec", ptr %41, i32 0, i32 13
  %43 = load i32, ptr %42, align 4, !tbaa !436
  %44 = add nsw i32 %40, %43
  %45 = load i32, ptr %14, align 4, !tbaa !14
  %46 = load i32, ptr %14, align 4, !tbaa !14
  %47 = getelementptr inbounds nuw %"class.OpenImageIO::v3_1_0::ImageInput", ptr %20, i32 0, i32 1
  %48 = getelementptr inbounds nuw %"class.OpenImageIO::v3_1_0::ImageSpec", ptr %47, i32 0, i32 14
  %49 = load i32, ptr %48, align 8, !tbaa !437
  %50 = add nsw i32 %46, %49
  %51 = getelementptr inbounds nuw %"class.OpenImageIO::v3_1_0::ImageInput", ptr %20, i32 0, i32 1
  %52 = getelementptr inbounds nuw %"class.OpenImageIO::v3_1_0::ImageSpec", ptr %51, i32 0, i32 15
  %53 = load i32, ptr %52, align 4, !tbaa !412
  %54 = load ptr, ptr %15, align 8, !tbaa !355
  %55 = invoke noundef zeroext i1 @_ZN11OpenImageIO6v3_1_012OpenEXRInput17read_native_tilesEiiiiiiiiiiPv(ptr noundef nonnull align 8 dereferenceable(320) %20, i32 noundef %31, i32 noundef %32, i32 noundef %33, i32 noundef %38, i32 noundef %39, i32 noundef %44, i32 noundef %45, i32 noundef %50, i32 noundef 0, i32 noundef %53, ptr noundef %54)
          to label %56 unwind label %26

56:                                               ; preds = %30
  store i1 %55, ptr %8, align 1
  store i32 1, ptr %19, align 4
  br label %57

57:                                               ; preds = %56, %25
  call void @_ZNSt10lock_guardIRKN11OpenImageIO6v3_1_010ImageInputEED2Ev(ptr noundef nonnull align 8 dereferenceable(8) %16) #5
  call void @llvm.lifetime.end.p0(i64 8, ptr %16) #5
  %58 = load i1, ptr %8, align 1
  ret i1 %58

59:                                               ; preds = %26
  %60 = load ptr, ptr %17, align 8
  %61 = load i32, ptr %18, align 4
  %62 = insertvalue { ptr, i32 } poison, ptr %60, 0
  %63 = insertvalue { ptr, i32 } %62, i32 %61, 1
  resume { ptr, i32 } %63
}