; Function Attrs: mustprogress uwtable
define hidden noundef zeroext i1 @_ZN11OpenImageIO6v3_1_012OpenEXRInput16read_native_tileEiiiiiPv(ptr noundef nonnull align 8 dereferenceable(320) %0, i32 noundef %1, i32 noundef %2, i32 noundef %3, i32 noundef %4, i32 noundef %5, ptr noundef %6) unnamed_addr #6 align 2 personality ptr @__gxx_personality_v0 {
  tail call void @_ZNK11OpenImageIO6v3_1_010ImageInput4lockEv(ptr noundef nonnull align 8 dereferenceable(184) %0)
  %8 = invoke noundef zeroext i1 @_ZN11OpenImageIO6v3_1_012OpenEXRInput13seek_subimageEii(ptr noundef nonnull align 8 dereferenceable(320) %0, i32 noundef %1, i32 noundef %2)
          to label %9 unwind label %10

9:                                                ; preds = %7
  br i1 %8, label %15, label %28

10:                                               ; preds = %15, %7
  %11 = landingpad { ptr, i32 }
          cleanup
  invoke void @_ZNK11OpenImageIO6v3_1_010ImageInput6unlockEv(ptr noundef nonnull align 8 dereferenceable(184) %0)
          to label %_ZNSt10lock_guardIRKN11OpenImageIO6v3_1_010ImageInputEED2Ev.exit unwind label %12

12:                                               ; preds = %10
  %13 = landingpad { ptr, i32 }
          catch ptr null
  %14 = extractvalue { ptr, i32 } %13, 0
  tail call void @__clang_call_terminate(ptr %14) #35
  unreachable

_ZNSt10lock_guardIRKN11OpenImageIO6v3_1_010ImageInputEED2Ev.exit: ; preds = %10
  resume { ptr, i32 } %11

15:                                               ; preds = %9
  %16 = getelementptr inbounds nuw i8, ptr %0, i64 56
  %17 = load i32, ptr %16, align 8, !tbaa !354
  %18 = add nsw i32 %17, %3
  %19 = getelementptr inbounds nuw i8, ptr %0, i64 60
  %20 = load i32, ptr %19, align 4, !tbaa !355
  %21 = add nsw i32 %20, %4
  %22 = getelementptr inbounds nuw i8, ptr %0, i64 64
  %23 = load i32, ptr %22, align 8, !tbaa !356
  %24 = add nsw i32 %23, %5
  %25 = getelementptr inbounds nuw i8, ptr %0, i64 68
  %26 = load i32, ptr %25, align 4, !tbaa !345
  %27 = invoke noundef zeroext i1 @_ZN11OpenImageIO6v3_1_012OpenEXRInput17read_native_tilesEiiiiiiiiiiPv(ptr noundef nonnull align 8 dereferenceable(320) %0, i32 noundef %1, i32 noundef %2, i32 noundef %3, i32 noundef %18, i32 noundef %4, i32 noundef %21, i32 noundef %5, i32 noundef %24, i32 noundef 0, i32 noundef %26, ptr noundef %6)
          to label %28 unwind label %10

28:                                               ; preds = %15, %9
  %.0 = phi i1 [ false, %9 ], [ %27, %15 ]
  invoke void @_ZNK11OpenImageIO6v3_1_010ImageInput6unlockEv(ptr noundef nonnull align 8 dereferenceable(184) %0)
          to label %_ZNSt10lock_guardIRKN11OpenImageIO6v3_1_010ImageInputEED2Ev.exit14 unwind label %29

29:                                               ; preds = %28
  %30 = landingpad { ptr, i32 }
          catch ptr null
  %31 = extractvalue { ptr, i32 } %30, 0
  tail call void @__clang_call_terminate(ptr %31) #35
  unreachable

_ZNSt10lock_guardIRKN11OpenImageIO6v3_1_010ImageInputEED2Ev.exit14: ; preds = %28
  ret i1 %.0
}